target datalayout = "e-m:e-p270:32:32-p271:32:32-p272:64:64-i64:64-i128:128-f80:128-n8:16:32:64-S128"
target triple = "x86_64-pc-linux-gnu"

%struct.H5D_earray_filt_elmt_t = type { i64, i32, i32 }

@H5D_init_g = external global i8, align 1
@H5_libterm_g = external global i8, align 1
@.str.6 = private unnamed_addr constant [14 x i8] c"Element #%lu:\00", align 1
@.str.8 = private unnamed_addr constant [1 x i8] zeroinitializer, align 1
@.str.9 = private unnamed_addr constant [24 x i8] c"%*s%-*s {%lu, %u, %0x}\0A\00", align 1

; Function Attrs: nounwind uwtable
define internal i32 @H5D__earray_filt_debug(ptr noundef %0, i32 noundef %1, i32 noundef %2, i64 noundef %3, ptr noundef %4) #0 {
  %6 = alloca ptr, align 8
  %7 = alloca i32, align 4
  %8 = alloca i32, align 4
  %9 = alloca i64, align 8
  %10 = alloca ptr, align 8
  %11 = alloca ptr, align 8
  %12 = alloca [128 x i8], align 16
  store ptr %0, ptr %6, align 8, !tbaa !103
  store i32 %1, ptr %7, align 4, !tbaa !12
  store i32 %2, ptr %8, align 4, !tbaa !12
  store i64 %3, ptr %9, align 8, !tbaa !10
  store ptr %4, ptr %10, align 8, !tbaa !80
  call void @llvm.lifetime.start.p0(i64 8, ptr %11) #8
  %13 = load ptr, ptr %10, align 8, !tbaa !80
  store ptr %13, ptr %11, align 8, !tbaa !120
  call void @llvm.lifetime.start.p0(i64 128, ptr %12) #8
  %14 = load i8, ptr @H5D_init_g, align 1, !tbaa !14, !range !16, !noundef !17
  %15 = trunc i8 %14 to i1
  br i1 %15, label %20, label %16

16:                                               ; preds = %5
  %17 = load i8, ptr @H5_libterm_g, align 1, !tbaa !14, !range !16, !noundef !17
  %18 = trunc i8 %17 to i1
  %19 = xor i1 %18, true
  br label %20

20:                                               ; preds = %16, %5
  %21 = phi i1 [ true, %5 ], [ %19, %16 ]
  %22 = xor i1 %21, true
  %23 = xor i1 %22, true
  %24 = zext i1 %23 to i32
  %25 = sext i32 %24 to i64
  %26 = call i64 @llvm.expect.i64(i64 %25, i64 1)
  %27 = icmp ne i64 %26, 0
  br i1 %27, label %28, label %46

28:                                               ; preds = %20
  %29 = getelementptr inbounds [128 x i8], ptr %12, i64 0, i64 0
  %30 = load i64, ptr %9, align 8, !tbaa !10
  %31 = call i32 (ptr, i64, ptr, ...) @snprintf(ptr noundef %29, i64 noundef 128, ptr noundef @.str.6, i64 noundef %30) #8
  %32 = load ptr, ptr %6, align 8, !tbaa !103
  %33 = load i32, ptr %7, align 4, !tbaa !12
  %34 = load i32, ptr %8, align 4, !tbaa !12
  %35 = getelementptr inbounds [128 x i8], ptr %12, i64 0, i64 0
  %36 = load ptr, ptr %11, align 8, !tbaa !120
  %37 = getelementptr inbounds nuw %struct.H5D_earray_filt_elmt_t, ptr %36, i32 0, i32 0
  %38 = load i64, ptr %37, align 8, !tbaa !66
  %39 = load ptr, ptr %11, align 8, !tbaa !120
  %40 = getelementptr inbounds nuw %struct.H5D_earray_filt_elmt_t, ptr %39, i32 0, i32 1
  %41 = load i32, ptr %40, align 8, !tbaa !69
  %42 = load ptr, ptr %11, align 8, !tbaa !120
  %43 = getelementptr inbounds nuw %struct.H5D_earray_filt_elmt_t, ptr %42, i32 0, i32 2
  %44 = load i32, ptr %43, align 4, !tbaa !71
  %45 = call i32 (ptr, ptr, ...) @fprintf(ptr noundef %32, ptr noundef @.str.9, i32 noundef %33, ptr noundef @.str.8, i32 noundef %34, ptr noundef %35, i64 noundef %38, i32 noundef %41, i32 noundef %44) #8
  br label %46

46:                                               ; preds = %28, %20
  call void @llvm.lifetime.end.p0(i64 128, ptr %12) #8
  call void @llvm.lifetime.end.p0(i64 8, ptr %11) #8
  ret i32 0
}